; Function Attrs: mustprogress nofree norecurse nosync nounwind willreturn memory(read, inaccessiblemem: none) uwtable
define ptr @dom_object_get_node(ptr noundef readonly %0) local_unnamed_addr #4 {
  %.not = icmp eq ptr %0, null
  br i1 %.not, label %6, label %2

2:                                                ; preds = %1
  %3 = load ptr, ptr %0, align 8
  %.not6 = icmp eq ptr %3, null
  br i1 %.not6, label %6, label %4

4:                                                ; preds = %2
  %5 = load ptr, ptr %3, align 8
  br label %6

6:                                                ; preds = %1, %2, %4
  %.0 = phi ptr [ %5, %4 ], [ null, %2 ], [ null, %1 ]
  ret ptr %.0
}